target datalayout = "e-m:e-p270:32:32-p271:32:32-p272:64:64-i64:64-i128:128-f80:128-n8:16:32:64-S128"
target triple = "x86_64-pc-linux-gnu"

%struct.png_struct_def = type { [1 x %struct.__jmp_buf_tag], ptr, ptr, i64, ptr, ptr, ptr, ptr, ptr, ptr, ptr, ptr, i8, i8, i32, i32, i32, i32, %struct.z_stream_s, i32, i32, i32, i32, i64, i32, i32, i32, ptr, ptr, i64, i32, i32, ptr, i16, i32, i16, i8, i8, i8, i8, i8, i8, i8, i8, i8, i8, i8, i8, i8, i8, i16, i8, i32, %struct.png_color_16_struct, %struct.png_color_16_struct, i32, i32, ptr, ptr, ptr, ptr, ptr, ptr, %struct.png_color_8_struct, %struct.png_color_8_struct, ptr, %struct.png_color_16_struct, ptr, ptr, ptr, ptr, ptr, ptr, ptr, ptr, ptr, i32, i32, i64, i64, i64, i64, i32, i32, ptr, ptr, [29 x i8], i32, ptr, ptr, i32, i32, ptr, i8, i8, i16, i16, ptr, i32, i8, ptr, ptr, ptr, ptr, ptr, ptr, ptr, i8, i32, i32, i32, i64, %struct.png_unknown_chunk_t, i64, ptr, i64, i32, i32, ptr, [4 x ptr], %struct.png_colorspace }
%struct.__jmp_buf_tag = type { [8 x i64], i32, %struct.__sigset_t }
%struct.__sigset_t = type { [16 x i64] }
%struct.z_stream_s = type { ptr, i32, i64, ptr, i32, i64, ptr, ptr, ptr, ptr, ptr, i32, i64, i64 }
%struct.png_color_8_struct = type { i8, i8, i8, i8, i8 }
%struct.png_color_16_struct = type { i8, i16, i16, i16, i16 }
%struct.png_unknown_chunk_t = type { [5 x i8], ptr, i64, i8 }
%struct.png_colorspace = type { i32, %struct.png_xy, %struct.png_XYZ, i16, i16 }
%struct.png_xy = type { i32, i32, i32, i32, i32, i32, i32, i32 }
%struct.png_XYZ = type { i32, i32, i32, i32, i32, i32, i32, i32, i32 }
%struct.png_image = type { ptr, i32, i32, i32, i32, i32, i32, i32, [64 x i8] }
%struct.png_control = type { ptr, ptr, ptr, ptr, i64, i8 }

@.str.16 = private unnamed_addr constant [3 x i8] c"rb\00", align 1
@.str.17 = private unnamed_addr constant [49 x i8] c"png_image_begin_read_from_file: invalid argument\00", align 1
@.str.18 = private unnamed_addr constant [60 x i8] c"png_image_begin_read_from_file: incorrect PNG_IMAGE_VERSION\00", align 1

; Function Attrs: nounwind uwtable
define hidden i32 @png_image_begin_read_from_file(ptr noundef %0, ptr noundef %1) #0 {
  %3 = alloca i32, align 4
  %4 = alloca ptr, align 8
  %5 = alloca ptr, align 8
  %6 = alloca ptr, align 8
  store ptr %0, ptr %4, align 8
  store ptr %1, ptr %5, align 8
  %7 = load ptr, ptr %4, align 8
  %8 = icmp ne ptr %7, null
  br i1 %8, label %9, label %58

9:                                                ; preds = %2
  %10 = load ptr, ptr %4, align 8
  %11 = getelementptr inbounds %struct.png_image, ptr %10, i32 0, i32 1
  %12 = load i32, ptr %11, align 8
  %13 = icmp eq i32 %12, 1
  br i1 %13, label %14, label %58

14:                                               ; preds = %9
  %15 = load ptr, ptr %5, align 8
  %16 = icmp ne ptr %15, null
  br i1 %16, label %17, label %54

17:                                               ; preds = %14
  %18 = load ptr, ptr %5, align 8
  %19 = call noalias ptr @fopen64(ptr noundef %18, ptr noundef @.str.16)
  store ptr %19, ptr %6, align 8
  %20 = load ptr, ptr %6, align 8
  %21 = icmp ne ptr %20, null
  br i1 %21, label %22, label %47

22:                                               ; preds = %17
  %23 = load ptr, ptr %4, align 8
  %24 = call i32 @png_image_read_init(ptr noundef %23)
  %25 = icmp ne i32 %24, 0
  br i1 %25, label %26, label %44

26:                                               ; preds = %22
  %27 = load ptr, ptr %6, align 8
  %28 = load ptr, ptr %4, align 8
  %29 = getelementptr inbounds %struct.png_image, ptr %28, i32 0, i32 0
  %30 = load ptr, ptr %29, align 8
  %31 = getelementptr inbounds %struct.png_control, ptr %30, i32 0, i32 0
  %32 = load ptr, ptr %31, align 8
  %33 = getelementptr inbounds %struct.png_struct_def, ptr %32, i32 0, i32 9
  store ptr %27, ptr %33, align 8
  %34 = load ptr, ptr %4, align 8
  %35 = getelementptr inbounds %struct.png_image, ptr %34, i32 0, i32 0
  %36 = load ptr, ptr %35, align 8
  %37 = getelementptr inbounds %struct.png_control, ptr %36, i32 0, i32 5
  %38 = load i8, ptr %37, align 8
  %39 = and i8 %38, -3
  %40 = or i8 %39, 2
  store i8 %40, ptr %37, align 8
  %41 = load ptr, ptr %4, align 8
  %42 = load ptr, ptr %4, align 8
  %43 = call i32 @png_safe_execute(ptr noundef %41, ptr noundef @png_image_read_header, ptr noundef %42)
  store i32 %43, ptr %3, align 4
  br label %66

44:                                               ; preds = %22
  %45 = load ptr, ptr %6, align 8
  %46 = call i32 @fclose(ptr noundef %45)
  br label %53

47:                                               ; preds = %17
  %48 = load ptr, ptr %4, align 8
  %49 = call ptr @__errno_location() #9
  %50 = load i32, ptr %49, align 4
  %51 = call ptr @strerror(i32 noundef %50) #10
  %52 = call i32 @png_image_error(ptr noundef %48, ptr noundef %51)
  store i32 %52, ptr %3, align 4
  br label %66

53:                                               ; preds = %44
  br label %57

54:                                               ; preds = %14
  %55 = load ptr, ptr %4, align 8
  %56 = call i32 @png_image_error(ptr noundef %55, ptr noundef @.str.17)
  store i32 %56, ptr %3, align 4
  br label %66

57:                                               ; preds = %53
  br label %65

58:                                               ; preds = %9, %2
  %59 = load ptr, ptr %4, align 8
  %60 = icmp ne ptr %59, null
  br i1 %60, label %61, label %64

61:                                               ; preds = %58
  %62 = load ptr, ptr %4, align 8
  %63 = call i32 @png_image_error(ptr noundef %62, ptr noundef @.str.18)
  store i32 %63, ptr %3, align 4
  br label %66

64:                                               ; preds = %58
  br label %65

65:                                               ; preds = %64, %57
  store i32 0, ptr %3, align 4
  br label %66

66:                                               ; preds = %65, %61, %54, %47, %26
  %67 = load i32, ptr %3, align 4
  ret i32 %67
}