; Function Attrs: nounwind uwtable
define hidden i32 @png_image_begin_read_from_file(ptr noundef %0, ptr noundef readonly %1) local_unnamed_addr #0 {
  %.not = icmp eq ptr %0, null
  br i1 %.not, label %.critedge, label %3

3:                                                ; preds = %2
  %4 = getelementptr inbounds i8, ptr %0, i64 8
  %5 = load i32, ptr %4, align 8
  %6 = icmp eq i32 %5, 1
  br i1 %6, label %7, label %30

7:                                                ; preds = %3
  %.not19 = icmp eq ptr %1, null
  br i1 %.not19, label %28, label %8

8:                                                ; preds = %7
  %9 = tail call noalias ptr @fopen64(ptr noundef nonnull %1, ptr noundef nonnull @.str.16)
  %.not20 = icmp eq ptr %9, null
  br i1 %.not20, label %23, label %10

10:                                               ; preds = %8
  %11 = tail call fastcc i32 @png_image_read_init(ptr noundef nonnull %0)
  %.not21 = icmp eq i32 %11, 0
  br i1 %.not21, label %21, label %12

12:                                               ; preds = %10
  %13 = load ptr, ptr %0, align 8
  %14 = load ptr, ptr %13, align 8
  %15 = getelementptr inbounds i8, ptr %14, i64 264
  store ptr %9, ptr %15, align 8
  %16 = load ptr, ptr %0, align 8
  %17 = getelementptr inbounds i8, ptr %16, i64 40
  %18 = load i8, ptr %17, align 8
  %19 = or i8 %18, 2
  store i8 %19, ptr %17, align 8
  %20 = tail call i32 @png_safe_execute(ptr noundef nonnull %0, ptr noundef nonnull @png_image_read_header, ptr noundef nonnull %0) #11
  br label %.critedge

21:                                               ; preds = %10
  %22 = tail call i32 @fclose(ptr noundef nonnull %9)
  br label %.critedge

23:                                               ; preds = %8
  %24 = tail call ptr @__errno_location() #13
  %25 = load i32, ptr %24, align 4
  %26 = tail call ptr @strerror(i32 noundef %25) #11
  %27 = tail call i32 @png_image_error(ptr noundef nonnull %0, ptr noundef %26) #11
  br label %.critedge

28:                                               ; preds = %7
  %29 = tail call i32 @png_image_error(ptr noundef nonnull %0, ptr noundef nonnull @.str.17) #11
  br label %.critedge

30:                                               ; preds = %3
  %31 = tail call i32 @png_image_error(ptr noundef nonnull %0, ptr noundef nonnull @.str.18) #11
  br label %.critedge

.critedge:                                        ; preds = %21, %2, %30, %28, %23, %12
  %.0 = phi i32 [ %20, %12 ], [ %27, %23 ], [ %29, %28 ], [ %31, %30 ], [ 0, %2 ], [ 0, %21 ]
  ret i32 %.0
}